(iparams
OnlineParameters
p0
(dp1
S'epsilon'
p2
F0.10000128572144246
sS'rewards'
p3
(lp4
F0.0
aF3.0
aF0.0
aF1.0
aF2.0
aF1.0
aF0.0
aF1.0
aF0.0
aF2.0
aF1.0
aF1.0
aF0.0
aF2.0
aF3.0
aF1.0
aF0.0
aF2.0
aF0.0
aF4.0
aF1.0
aF1.0
aF1.0
aF1.0
aF2.0
aF2.0
aF1.0
aF0.0
aF0.0
aF0.0
aF0.0
aF1.0
aF0.0
aF1.0
aF3.0
aF2.0
aF3.0
aF1.0
aF2.0
aF1.0
aF0.0
aF1.0
aF0.0
aF3.0
aF2.0
aF0.0
aF0.0
aF2.0
aF1.0
aF0.0
aF0.0
aF2.0
aF2.0
aF1.0
aF0.0
aF2.0
aF1.0
aF0.0
aF1.0
aF0.0
aF0.0
aF1.0
aF1.0
aF6.0
aF0.0
aF0.0
aF2.0
aF2.0
aF0.0
aF1.0
aF0.0
aF3.0
aF0.0
aF0.0
aF4.0
aF3.0
aF5.0
aF1.0
aF2.0
aF3.0
aF2.0
aF0.0
aF1.0
aF1.0
aF1.0
aF0.0
aF1.0
aF2.0
aF0.0
aF1.0
aF1.0
aF3.0
aF2.0
aF0.0
aF0.0
aF2.0
aF1.0
aF1.0
aF2.0
aF3.0
aF2.0
aF1.0
aF1.0
aF1.0
aF3.0
aF1.0
aF3.0
aF2.0
aF1.0
aF2.0
aF4.0
aF1.0
aF0.0
aF4.0
aF0.0
aF0.0
aF1.0
aF1.0
aF1.0
aF2.0
aF2.0
aF0.0
aF0.0
aF1.0
aF2.0
aF1.0
aF0.0
aF3.0
aF2.0
aF1.0
aF0.0
aF2.0
aF0.0
aF2.0
aF3.0
aF1.0
aF2.0
aF0.0
aF2.0
aF0.0
aF2.0
aF5.0
aF1.0
aF1.0
aF0.0
aF4.0
aF0.0
aF2.0
aF1.0
aF0.0
aF0.0
aF2.0
aF3.0
aF0.0
aF1.0
aF0.0
aF1.0
aF0.0
aF0.0
aF1.0
aF0.0
aF0.0
aF1.0
aF1.0
aF1.0
aF0.0
aF2.0
aF1.0
aF2.0
aF2.0
aF3.0
aF0.0
aF1.0
aF3.0
aF2.0
aF1.0
aF1.0
aF1.0
aF1.0
aF3.0
aF0.0
aF1.0
aF2.0
aF2.0
aF2.0
aF1.0
aF1.0
aF2.0
aF0.0
aF0.0
aF2.0
aF3.0
aF1.0
aF1.0
aF0.0
aF4.0
aF0.0
aF1.0
aF2.0
aF0.0
aF3.0
aF1.0
aF1.0
aF0.0
aF1.0
aF3.0
aF2.0
aF2.0
aF1.0
aF1.0
aF0.0
aF1.0
aF1.0
aF3.0
aF1.0
aF4.0
aF2.0
aF4.0
aF2.0
aF0.0
aF0.0
aF1.0
aF1.0
aF1.0
aF4.0
aF6.0
aF0.0
aF1.0
aF2.0
aF2.0
aF0.0
aF0.0
aF1.0
aF3.0
aF1.0
aF0.0
aF1.0
aF0.0
aF0.0
aF1.0
aF0.0
aF1.0
aF0.0
aF3.0
aF0.0
aF1.0
aF0.0
aF0.0
aF1.0
aF1.0
aF0.0
aF0.0
aF1.0
aF3.0
aF0.0
aF1.0
aF1.0
aF2.0
aF2.0
aF3.0
aF0.0
aF1.0
aF0.0
aF1.0
aF2.0
aF4.0
aF2.0
aF1.0
aF2.0
aF4.0
aF1.0
aF0.0
aF3.0
aF0.0
aF1.0
aF0.0
aF2.0
aF2.0
aF1.0
aF5.0
aF3.0
aF5.0
aF1.0
aF1.0
aF1.0
aF3.0
aF2.0
aF0.0
aF0.0
aF0.0
aF2.0
aF0.0
aF2.0
aF0.0
aF1.0
aF1.0
aF0.0
aF0.0
aF2.0
aF3.0
aF1.0
aF1.0
aF1.0
aF0.0
aF0.0
aF0.0
aF1.0
aF0.0
aF0.0
aF1.0
aF0.0
aF0.0
aF2.0
aF4.0
aF2.0
aF0.0
aF1.0
aF0.0
aF1.0
aF2.0
aF0.0
aF0.0
aF1.0
aF1.0
aF2.0
aF1.0
aF0.0
aF2.0
aF1.0
aF2.0
aF0.0
aF0.0
aF1.0
aF4.0
aF1.0
aF1.0
aF0.0
aF2.0
aF3.0
aF0.0
aF1.0
aF2.0
aF4.0
aF0.0
aF2.0
aF2.0
aF2.0
aF0.0
aF2.0
aF2.0
aF0.0
aF3.0
aF0.0
aF3.0
aF0.0
aF0.0
aF1.0
aF5.0
aF1.0
aF2.0
aF0.0
aF3.0
aF0.0
aF0.0
aF2.0
aF0.0
aF2.0
aF1.0
aF1.0
aF2.0
aF4.0
aF0.0
aF1.0
aF1.0
aF1.0
aF1.0
aF3.0
aF0.0
aF4.0
aF1.0
aF1.0
aF0.0
aF0.0
aF2.0
aF5.0
aF1.0
aF1.0
aF1.0
aF3.0
aF2.0
aF2.0
aF2.0
aF2.0
aF1.0
aF1.0
aF0.0
aF1.0
aF1.0
aF0.0
aF1.0
aF3.0
aF0.0
aF0.0
aF2.0
aF3.0
aF0.0
aF1.0
aF1.0
aF1.0
aF1.0
aF2.0
aF1.0
aF0.0
aF3.0
aF2.0
aF0.0
aF0.0
aF3.0
aF1.0
aF9.0
aF2.0
aF0.0
aF0.0
aF0.0
aF0.0
aF0.0
aF0.0
aF1.0
aF0.0
aF2.0
aF2.0
aF3.0
aF3.0
aF0.0
aF0.0
aF1.0
aF0.0
aF2.0
aF0.0
aF1.0
aF2.0
aF1.0
aF1.0
aF2.0
aF1.0
aF2.0
aF1.0
aF2.0
aF1.0
aF1.0
aF2.0
aF0.0
aF9.0
aF1.0
aF2.0
aF0.0
aF2.0
aF4.0
aF1.0
aF4.0
aF1.0
aF0.0
aF1.0
aF1.0
aF1.0
aF2.0
aF0.0
aF0.0
aF1.0
aF1.0
aF0.0
aF2.0
aF1.0
aF0.0
aF1.0
aF2.0
aF1.0
aF4.0
aF1.0
aF2.0
aF3.0
aF4.0
aF1.0
aF2.0
aF0.0
aF1.0
aF5.0
aF1.0
aF1.0
aF1.0
aF0.0
aF0.0
aF0.0
aF0.0
aF4.0
aF1.0
aF4.0
aF0.0
aF0.0
aF0.0
aF2.0
aF0.0
aF1.0
aF0.0
aF2.0
aF2.0
aF0.0
aF1.0
aF0.0
aF0.0
aF1.0
aF1.0
aF1.0
aF2.0
aF1.0
aF1.0
aF0.0
aF2.0
aF3.0
aF2.0
aF4.0
aF2.0
aF0.0
aF2.0
aF3.0
aF0.0
aF2.0
aF0.0
aF0.0
aF0.0
aF1.0
aF2.0
aF4.0
aF2.0
aF2.0
aF1.0
aF1.0
aF3.0
aF1.0
aF3.0
aF1.0
aF0.0
aF4.0
aF1.0
aF2.0
aF1.0
aF4.0
aF2.0
aF1.0
aF1.0
aF0.0
aF2.0
aF0.0
aF0.0
aF0.0
aF2.0
aF1.0
aF2.0
aF2.0
aF1.0
aF1.0
aF4.0
aF0.0
aF2.0
aF3.0
aF2.0
aF3.0
aF0.0
aF1.0
aF2.0
aF3.0
aF3.0
aF3.0
aF0.0
aF6.0
aF0.0
aF0.0
aF1.0
aF4.0
aF3.0
aF0.0
aF2.0
aF1.0
aF0.0
aF0.0
aF1.0
aF4.0
aF0.0
aF1.0
aF2.0
aF0.0
aF0.0
aF0.0
aF2.0
aF0.0
aF0.0
aF0.0
aF2.0
aF1.0
aF1.0
aF0.0
aF0.0
aF0.0
aF2.0
aF1.0
aF3.0
aF1.0
aF1.0
aF1.0
aF5.0
aF0.0
aF2.0
aF1.0
aF0.0
aF2.0
aF3.0
aF2.0
aF0.0
aF2.0
aF0.0
aF1.0
aF3.0
aF3.0
aF1.0
aF2.0
aF0.0
aF0.0
aF1.0
aF1.0
aF1.0
aF1.0
aF3.0
aF2.0
aF2.0
aF0.0
aF4.0
aF0.0
aF0.0
aF0.0
aF2.0
aF2.0
aF2.0
aF2.0
aF1.0
aF4.0
aF0.0
aF0.0
aF0.0
aF2.0
aF1.0
aF0.0
aF0.0
aF4.0
aF2.0
aF1.0
aF1.0
aF0.0
aF2.0
aF3.0
aF0.0
aF1.0
aF0.0
aF3.0
aF0.0
aF1.0
aF2.0
aF0.0
aF2.0
aF1.0
aF1.0
aF1.0
aF0.0
aF0.0
aF0.0
aF3.0
aF0.0
aF1.0
aF1.0
aF5.0
aF3.0
aF3.0
aF3.0
aF0.0
aF2.0
aF2.0
aF0.0
aF3.0
aF1.0
aF1.0
aF0.0
aF2.0
aF0.0
aF1.0
aF0.0
aF3.0
aF1.0
aF3.0
aF0.0
aF1.0
aF2.0
aF0.0
aF0.0
aF1.0
aF0.0
aF2.0
aF4.0
aF0.0
aF1.0
aF0.0
aF2.0
aF1.0
aF0.0
aF1.0
aF0.0
aF1.0
aF2.0
aF1.0
aF1.0
aF5.0
aF1.0
aF0.0
aF2.0
aF0.0
aF0.0
aF4.0
aF2.0
aF3.0
aF0.0
aF0.0
aF2.0
aF0.0
aF1.0
aF1.0
aF1.0
aF1.0
aF2.0
aF0.0
aF2.0
aF0.0
aF0.0
aF0.0
aF1.0
aF8.0
aF1.0
aF2.0
aF1.0
aF1.0
aF0.0
aF2.0
aF1.0
aF0.0
aF1.0
aF2.0
aF2.0
aF1.0
aF0.0
aF0.0
aF3.0
aF0.0
aF3.0
aF2.0
aF1.0
aF1.0
aF3.0
aF0.0
aF0.0
aF0.0
aF1.0
aF0.0
aF1.0
aF2.0
aF1.0
aF0.0
aF1.0
aF2.0
aF1.0
aF1.0
aF0.0
aF2.0
aF1.0
aF5.0
aF1.0
aF0.0
aF1.0
aF0.0
aF1.0
aF1.0
aF2.0
aF0.0
aF1.0
aF2.0
aF3.0
aF0.0
aF2.0
aF1.0
aF0.0
aF2.0
aF3.0
aF0.0
aF2.0
aF0.0
aF2.0
aF1.0
aF0.0
aF1.0
aF0.0
aF1.0
aF0.0
aF1.0
aF2.0
aF1.0
aF1.0
aF2.0
aF0.0
aF1.0
aF1.0
aF4.0
aF9.0
aF1.0
aF5.0
aF0.0
aF1.0
aF3.0
aF1.0
aF1.0
aF2.0
aF3.0
aF0.0
aF0.0
aF1.0
aF1.0
aF3.0
aF1.0
aF0.0
aF0.0
aF1.0
aF0.0
aF2.0
aF1.0
aF1.0
aF3.0
aF1.0
aF3.0
aF2.0
aF1.0
aF2.0
aF0.0
aF1.0
aF3.0
aF0.0
aF1.0
aF0.0
aF1.0
aF0.0
aF0.0
aF0.0
aF1.0
aF1.0
aF3.0
aF0.0
aF2.0
aF0.0
aF0.0
aF1.0
aF1.0
aF2.0
aF4.0
aF5.0
aF1.0
aF0.0
aF1.0
aF3.0
aF0.0
aF0.0
aF3.0
aF0.0
aF1.0
aF1.0
aF0.0
aF2.0
aF0.0
aF0.0
aF1.0
aF3.0
aF1.0
aF2.0
aF3.0
aF1.0
aF1.0
aF0.0
aF0.0
aF0.0
aF2.0
aF1.0
aF1.0
aF0.0
aF1.0
aF2.0
aF1.0
aF1.0
aF1.0
aF1.0
aF2.0
aF0.0
aF0.0
aF0.0
aF1.0
aF3.0
aF1.0
aF1.0
aF0.0
aF3.0
aF0.0
aF3.0
aF4.0
aF2.0
aF1.0
aF1.0
aF0.0
aF3.0
aF0.0
aF1.0
aF2.0
aF2.0
aF2.0
aF2.0
aF0.0
aF0.0
aF0.0
aF1.0
aF1.0
aF3.0
aF1.0
aF0.0
aF3.0
aF2.0
aF0.0
aF1.0
aF4.0
aF4.0
aF3.0
aF1.0
aF0.0
aF1.0
aF0.0
aF1.0
aF0.0
aF1.0
aF1.0
aF4.0
aF1.0
aF1.0
aF0.0
aF2.0
aF2.0
aF1.0
aF0.0
aF2.0
aF1.0
aF3.0
aF1.0
aF1.0
aF1.0
aF0.0
aF2.0
aF3.0
aF2.0
aF1.0
aF0.0
aF3.0
aF1.0
aF0.0
aF1.0
aF0.0
aF1.0
aF2.0
aF2.0
aF1.0
aF0.0
aF2.0
aF0.0
aF1.0
aF0.0
aF2.0
aF4.0
aF1.0
aF3.0
aF1.0
aF1.0
aF1.0
aF2.0
aF3.0
aF0.0
aF2.0
aF0.0
aF0.0
aF3.0
aF4.0
aF0.0
aF1.0
aF2.0
aF3.0
aF0.0
aF1.0
aF2.0
aF0.0
aF0.0
aF1.0
aF1.0
aF1.0
aF0.0
aF3.0
aF2.0
aF0.0
aF1.0
aF1.0
aF0.0
aF1.0
aF0.0
aF1.0
aF2.0
aF0.0
aF1.0
aF1.0
aF0.0
aF0.0
aF0.0
aF3.0
aF1.0
aF0.0
aF1.0
aF1.0
aF1.0
aF1.0
aF1.0
aF2.0
aF2.0
aF2.0
aF0.0
aF2.0
aF0.0
aF5.0
aF2.0
aF3.0
aF3.0
aF3.0
aF2.0
aF0.0
aF1.0
aF0.0
aF0.0
aF0.0
aF0.0
aF0.0
aF3.0
aF2.0
aF0.0
aF1.0
aF0.0
aF1.0
aF1.0
aF0.0
aF1.0
aF1.0
aF1.0
aF3.0
aF1.0
aF2.0
aF2.0
aF2.0
aF0.0
aF3.0
aF1.0
aF1.0
aF2.0
aF1.0
aF0.0
aF0.0
aF0.0
aF1.0
aF4.0
aF1.0
aF0.0
aF2.0
aF1.0
aF2.0
aF0.0
aF0.0
aF2.0
aF1.0
aF0.0
aF0.0
aF1.0
aF1.0
aF1.0
aF3.0
aF0.0
aF0.0
aF1.0
aF0.0
aF0.0
aF1.0
aF1.0
aF2.0
aF1.0
aF2.0
aF2.0
aF5.0
aF2.0
aF0.0
aF0.0
aF1.0
aF1.0
aF1.0
aF1.0
aF0.0
aF1.0
aF0.0
aF3.0
aF0.0
aF5.0
aF2.0
aF2.0
aF0.0
aF0.0
aF2.0
aF0.0
aF3.0
aF1.0
aF2.0
aF2.0
aF0.0
aF0.0
aF0.0
aF2.0
aF0.0
aF3.0
aF2.0
aF2.0
aF1.0
aF3.0
aF0.0
aF1.0
aF3.0
aF0.0
aF2.0
aF3.0
aF0.0
aF0.0
aF2.0
aF1.0
aF0.0
aF1.0
aF5.0
aF4.0
aF0.0
aF1.0
aF0.0
aF1.0
aF4.0
aF3.0
aF1.0
aF1.0
aF0.0
aF3.0
aF3.0
aF3.0
aF2.0
aF0.0
aF1.0
aF1.0
aF2.0
aF0.0
aF5.0
aF3.0
aF1.0
aF2.0
aF2.0
aF1.0
aF1.0
aF0.0
aF4.0
aF5.0
aF0.0
aF2.0
aF1.0
aF3.0
aF0.0
aF2.0
aF0.0
aF1.0
aF4.0
aF3.0
aF0.0
aF1.0
aF2.0
aF3.0
aF3.0
aF4.0
aF2.0
aF1.0
aF1.0
aF1.0
aF0.0
aF0.0
aF0.0
aF1.0
aF4.0
aF4.0
aF0.0
aF0.0
aF0.0
aF1.0
aF2.0
aF0.0
aF3.0
aF2.0
aF1.0
aF3.0
aF1.0
aF2.0
aF0.0
aF2.0
aF4.0
aF2.0
aF3.0
aF2.0
aF1.0
aF4.0
aF0.0
aF1.0
aF2.0
aF3.0
aF2.0
aF3.0
aF1.0
aF2.0
aF3.0
aF3.0
aF1.0
aF1.0
aF2.0
aF4.0
aF1.0
aF0.0
aF2.0
aF3.0
aF2.0
aF0.0
aF1.0
aF3.0
aF3.0
aF0.0
aF4.0
aF2.0
aF2.0
aF2.0
aF0.0
aF2.0
aF3.0
aF3.0
aF2.0
aF0.0
aF3.0
aF1.0
aF1.0
aF2.0
aF0.0
aF1.0
aF3.0
aF2.0
aF2.0
aF4.0
aF2.0
aF2.0
aF1.0
aF1.0
aF2.0
aF1.0
aF2.0
aF2.0
aF2.0
aF2.0
aF0.0
aF2.0
aF1.0
aF2.0
aF3.0
aF4.0
aF0.0
aF0.0
aF2.0
aF2.0
aF0.0
aF0.0
aF0.0
aF1.0
aF2.0
aF1.0
aF1.0
aF4.0
aF3.0
aF3.0
aF1.0
aF1.0
aF2.0
aF2.0
aF1.0
aF3.0
aF3.0
aF1.0
aF4.0
aF1.0
aF2.0
aF1.0
aF4.0
aF2.0
aF1.0
aF2.0
aF5.0
aF1.0
aF3.0
aF2.0
aF2.0
aF2.0
aF3.0
aF0.0
aF3.0
aF3.0
aF2.0
aF4.0
aF2.0
aF2.0
aF2.0
aF0.0
aF4.0
aF2.0
aF0.0
aF0.0
aF3.0
aF3.0
aF5.0
aF4.0
aF2.0
aF4.0
aF3.0
aF3.0
aF3.0
aF0.0
aF3.0
aF2.0
aF3.0
aF2.0
aF3.0
aF0.0
aF0.0
aF4.0
aF4.0
aF3.0
aF0.0
aF4.0
aF5.0
aF0.0
aF3.0
aF2.0
aF1.0
aF5.0
aF1.0
aF1.0
aF2.0
aF4.0
aF2.0
aF3.0
aF2.0
aF1.0
aF1.0
aF0.0
aF3.0
aF0.0
aF2.0
aF1.0
aF4.0
aF4.0
aF6.0
aF0.0
aF1.0
aF1.0
aF1.0
aF5.0
aF3.0
aF6.0
aF4.0
aF4.0
aF2.0
aF3.0
aF2.0
aF2.0
aF2.0
aF2.0
aF3.0
aF3.0
aF2.0
aF2.0
aF3.0
aF1.0
aF3.0
aF3.0
aF3.0
aF2.0
aF0.0
aF3.0
aF3.0
aF3.0
aF2.0
aF2.0
aF1.0
aF3.0
aF2.0
aF2.0
aF3.0
aF1.0
aF3.0
aF2.0
aF2.0
aF2.0
aF2.0
aF5.0
aF2.0
aF1.0
aF3.0
aF4.0
aF3.0
aF1.0
aF2.0
aF3.0
aF3.0
aF3.0
aF2.0
aF1.0
aF2.0
aF3.0
aF2.0
aF2.0
aF1.0
aF7.0
aF2.0
aF1.0
aF3.0
aF4.0
aF1.0
aF2.0
aF4.0
aF3.0
aF0.0
aF3.0
aF1.0
aF3.0
aF3.0
aF1.0
aF4.0
aF3.0
aF1.0
aF2.0
aF2.0
aF2.0
aF4.0
aF1.0
aF1.0
aF7.0
aF3.0
aF2.0
aF3.0
aF2.0
aF2.0
aF2.0
aF2.0
aF2.0
aF2.0
aF2.0
aF2.0
aF2.0
aF4.0
aF4.0
aF2.0
aF4.0
aF3.0
aF1.0
aF2.0
aF1.0
aF2.0
aF2.0
aF1.0
aF5.0
aF3.0
aF4.0
aF2.0
aF2.0
aF2.0
aF4.0
aF1.0
aF1.0
aF1.0
aF3.0
aF3.0
aF2.0
aF2.0
aF2.0
aF2.0
aF2.0
aF3.0
aF2.0
aF4.0
aF2.0
aF5.0
aF3.0
aF2.0
aF3.0
aF5.0
aF1.0
aF4.0
aF1.0
aF2.0
aF3.0
aF3.0
aF5.0
aF3.0
aF4.0
aF1.0
aF3.0
aF1.0
aF4.0
aF2.0
aF1.0
aF3.0
aF3.0
aF1.0
aF2.0
aF3.0
aF6.0
aF2.0
aF1.0
aF5.0
aF3.0
aF2.0
aF4.0
aF2.0
aF3.0
aF2.0
aF2.0
aF2.0
aF2.0
aF2.0
aF3.0
aF5.0
aF2.0
aF3.0
aF2.0
aF3.0
aF2.0
aF3.0
aF5.0
aF4.0
aF2.0
aF2.0
aF2.0
aF2.0
aF3.0
aF5.0
aF1.0
aF3.0
aF2.0
aF2.0
aF5.0
aF3.0
aF4.0
aF2.0
aF2.0
aF4.0
aF3.0
aF4.0
aF3.0
aF3.0
aF2.0
aF2.0
aF5.0
aF2.0
aF4.0
aF3.0
aF3.0
aF2.0
aF2.0
aF2.0
aF1.0
aF3.0
aF3.0
aF6.0
aF4.0
aF3.0
aF3.0
aF2.0
aF3.0
aF4.0
aF3.0
aF4.0
aF3.0
aF4.0
aF6.0
aF3.0
aF3.0
aF5.0
aF2.0
aF3.0
aF2.0
aF4.0
aF4.0
aF4.0
aF2.0
aF1.0
aF2.0
aF2.0
aF2.0
aF3.0
aF3.0
aF1.0
aF5.0
aF2.0
aF2.0
aF2.0
aF4.0
aF2.0
aF3.0
aF4.0
aF3.0
aF3.0
aF2.0
aF5.0
aF3.0
aF3.0
aF4.0
aF2.0
aF2.0
aF1.0
aF3.0
aF3.0
aF3.0
aF1.0
aF1.0
aF4.0
aF4.0
aF3.0
aF2.0
aF2.0
aF3.0
aF8.0
aF4.0
aF1.0
aF4.0
aF2.0
aF3.0
aF6.0
aF2.0
aF3.0
aF3.0
aF3.0
aF4.0
aF3.0
aF3.0
aF4.0
aF2.0
aF2.0
aF4.0
aF5.0
aF1.0
aF2.0
aF2.0
aF4.0
aF2.0
aF3.0
aF2.0
aF3.0
aF2.0
aF3.0
aF3.0
aF3.0
aF4.0
aF1.0
aF3.0
aF2.0
aF1.0
aF2.0
aF2.0
aF3.0
aF2.0
aF3.0
aF2.0
aF4.0
aF6.0
aF2.0
aF4.0
aF4.0
aF3.0
aF1.0
aF2.0
aF3.0
aF2.0
aF3.0
aF2.0
aF2.0
aF2.0
aF4.0
aF3.0
aF2.0
aF2.0
aF2.0
aF3.0
aF2.0
aF2.0
aF1.0
aF3.0
aF2.0
aF4.0
aF2.0
aF2.0
aF1.0
aF8.0
aF1.0
aF1.0
aF3.0
aF3.0
aF1.0
aF2.0
aF5.0
aF4.0
aF2.0
aF2.0
aF2.0
aF2.0
aF2.0
aF2.0
aF2.0
aF3.0
aF1.0
aF4.0
aF1.0
aF3.0
aF3.0
aF4.0
aF3.0
aF2.0
aF2.0
aF2.0
aF3.0
aF2.0
aF1.0
aF1.0
aF2.0
aF3.0
aF5.0
aF3.0
aF2.0
aF3.0
aF2.0
aF2.0
aF1.0
aF3.0
aF3.0
aF1.0
aF1.0
aF2.0
aF4.0
aF3.0
aF4.0
aF1.0
aF2.0
aF2.0
aF2.0
aF2.0
aF2.0
aF3.0
aF2.0
aF4.0
aF3.0
aF2.0
aF4.0
aF7.0
aF4.0
aF2.0
aF5.0
aF3.0
aF2.0
aF6.0
aF2.0
aF2.0
aF4.0
aF4.0
aF2.0
aF1.0
aF2.0
aF1.0
aF2.0
aF3.0
aF3.0
aF3.0
aF2.0
aF3.0
aF1.0
aF2.0
aF1.0
aF1.0
aF1.0
aF0.0
aF5.0
aF2.0
aF1.0
aF2.0
aF4.0
aF2.0
aF1.0
aF1.0
aF1.0
aF2.0
aF3.0
aF4.0
aF3.0
aF2.0
aF3.0
aF3.0
aF2.0
aF2.0
aF2.0
aF4.0
aF1.0
aF3.0
aF2.0
aF1.0
aF2.0
aF3.0
aF1.0
aF3.0
aF4.0
aF3.0
aF3.0
aF1.0
aF2.0
aF2.0
aF3.0
aF2.0
aF3.0
aF2.0
aF2.0
aF1.0
aF1.0
aF0.0
aF2.0
aF3.0
aF2.0
aF2.0
aF1.0
aF3.0
aF3.0
aF2.0
aF2.0
aF4.0
aF3.0
aF2.0
aF2.0
aF3.0
aF9.0
aF1.0
aF2.0
aF1.0
aF3.0
aF3.0
aF3.0
aF3.0
aF1.0
aF3.0
aF4.0
aF1.0
aF1.0
aF2.0
aF4.0
aF1.0
aF1.0
aF3.0
aF1.0
aF2.0
aF2.0
aF2.0
aF2.0
aF3.0
aF5.0
aF3.0
aF3.0
aF2.0
aF3.0
aF2.0
aF3.0
aF2.0
aF4.0
aF3.0
aF4.0
aF4.0
aF1.0
aF2.0
aF3.0
aF1.0
aF3.0
aF2.0
aF2.0
aF2.0
aF3.0
aF2.0
aF4.0
aF1.0
aF2.0
aF4.0
aF4.0
aF1.0
aF2.0
aF2.0
aF5.0
aF3.0
aF4.0
aF2.0
aF2.0
aF3.0
aF5.0
aF1.0
aF3.0
aF2.0
aF3.0
aF4.0
aF1.0
aF2.0
aF2.0
aF6.0
aF2.0
aF3.0
aF4.0
aF3.0
aF2.0
aF2.0
aF3.0
aF3.0
aF2.0
aF2.0
aF4.0
aF2.0
aF2.0
aF3.0
aF3.0
aF2.0
aF3.0
aF1.0
aF2.0
aF5.0
aF5.0
aF3.0
aF1.0
aF2.0
aF3.0
aF2.0
aF2.0
aF3.0
aF5.0
aF2.0
aF4.0
aF3.0
aF3.0
aF4.0
aF4.0
aF2.0
aF4.0
aF2.0
aF2.0
aF3.0
aF2.0
aF2.0
aF1.0
aF4.0
aF1.0
aF3.0
aF1.0
aF1.0
aF2.0
aF2.0
aF4.0
aF3.0
aF2.0
aF2.0
aF4.0
aF3.0
aF3.0
aF2.0
aF3.0
aF3.0
aF2.0
aF2.0
aF3.0
aF4.0
aF4.0
aF4.0
aF1.0
aF2.0
aF4.0
aF2.0
aF2.0
aF3.0
aF5.0
aF2.0
aF5.0
aF5.0
aF1.0
aF3.0
aF2.0
aF2.0
aF4.0
aF4.0
aF4.0
aF2.0
aF3.0
aF4.0
aF2.0
aF1.0
aF2.0
aF9.0
aF3.0
aF2.0
aF5.0
aF2.0
aF2.0
aF5.0
aF4.0
aF2.0
aF2.0
aF3.0
aF5.0
aF4.0
aF3.0
aF4.0
aF3.0
aF2.0
aF3.0
aF5.0
aF3.0
aF2.0
aF3.0
aF4.0
aF2.0
aF2.0
aF3.0
aF3.0
aF3.0
aF4.0
aF3.0
aF2.0
aF1.0
aF4.0
aF6.0
aF3.0
aF2.0
aF3.0
aF3.0
aF2.0
aF1.0
aF3.0
aF4.0
aF1.0
aF6.0
aF2.0
aF3.0
aF3.0
aF2.0
aF4.0
aF5.0
aF5.0
aF3.0
aF2.0
aF1.0
aF3.0
aF2.0
aF3.0
aF2.0
aF2.0
aF2.0
aF1.0
aF3.0
aF2.0
aF1.0
aF5.0
aF3.0
aF3.0
aF2.0
aF2.0
aF4.0
aF1.0
aF1.0
aF1.0
aF3.0
aF1.0
aF2.0
aF1.0
aF2.0
aF2.0
aF2.0
aF5.0
aF5.0
aF6.0
aF3.0
aF2.0
aF2.0
aF4.0
aF4.0
aF4.0
aF2.0
aF3.0
aF2.0
aF4.0
aF3.0
aF2.0
aF2.0
aF3.0
aF3.0
aF2.0
aF2.0
aF5.0
aF4.0
aF4.0
aF2.0
aF5.0
aF2.0
aF6.0
aF5.0
aF2.0
aF3.0
aF2.0
aF4.0
aF4.0
aF4.0
aF3.0
aF2.0
aF6.0
aF1.0
aF3.0
aF1.0
aF4.0
aF2.0
aF5.0
aF3.0
aF2.0
aF4.0
aF3.0
aF4.0
aF2.0
aF3.0
aF5.0
aF9.0
aF2.0
aF1.0
aF4.0
aF2.0
aF2.0
aF2.0
aF3.0
aF3.0
aF2.0
aF3.0
aF3.0
aF2.0
aF3.0
aF2.0
aF2.0
aF3.0
aF1.0
aF2.0
aF2.0
aF6.0
aF2.0
aF1.0
aF2.0
aF2.0
aF2.0
aF2.0
aF3.0
aF3.0
aF2.0
aF2.0
aF2.0
aF3.0
aF3.0
aF2.0
aF2.0
aF4.0
aF4.0
aF1.0
aF6.0
aF3.0
aF3.0
aF2.0
aF3.0
aF2.0
aF2.0
aF1.0
aF2.0
aF3.0
aF5.0
aF2.0
aF2.0
aF3.0
aF4.0
aF3.0
aF0.0
aF4.0
aF2.0
aF3.0
aF1.0
aF2.0
aF2.0
aF4.0
aF1.0
aF2.0
aF1.0
aF3.0
aF1.0
aF3.0
aF3.0
aF3.0
aF3.0
aF2.0
aF3.0
aF2.0
aF6.0
aF2.0
aF5.0
aF3.0
aF3.0
aF2.0
aF3.0
aF5.0
aF2.0
aF2.0
aF3.0
aF2.0
aF4.0
aF4.0
aF2.0
aF3.0
aF1.0
aF2.0
aF6.0
aF2.0
aF3.0
aF3.0
aF3.0
aF3.0
aF3.0
aF1.0
aF2.0
aF2.0
aF3.0
aF2.0
aF4.0
aF3.0
aF1.0
aF2.0
aF3.0
aF1.0
aF2.0
aF1.0
aF3.0
aF4.0
aF1.0
aF4.0
aF2.0
aF1.0
aF1.0
aF1.0
aF3.0
aF3.0
aF2.0
aF3.0
aF2.0
aF3.0
aF3.0
aF4.0
aF2.0
aF2.0
aF2.0
aF3.0
aF3.0
aF4.0
aF3.0
aF1.0
aF3.0
aF2.0
aF4.0
aF2.0
aF2.0
aF2.0
aF2.0
aF6.0
aF3.0
aF5.0
aF5.0
aF3.0
aF2.0
aF2.0
aF2.0
aF1.0
aF3.0
aF4.0
aF3.0
aF1.0
aF1.0
aF2.0
aF1.0
aF2.0
aF1.0
aF2.0
aF2.0
aF5.0
aF2.0
aF5.0
aF2.0
aF2.0
aF4.0
aF2.0
aF3.0
aF2.0
aF2.0
aF2.0
aF3.0
aF3.0
aF2.0
aF2.0
aF4.0
aF1.0
aF3.0
aF5.0
aF2.0
aF1.0
aF3.0
aF2.0
aF3.0
aF2.0
aF4.0
aF1.0
aF3.0
aF3.0
aF3.0
aF2.0
aF3.0
aF3.0
aF2.0
aF3.0
aF6.0
aF3.0
aF4.0
aF1.0
aF3.0
aF2.0
aF1.0
aF2.0
aF1.0
aF4.0
aF3.0
aF4.0
aF2.0
aF1.0
aF3.0
aF3.0
aF5.0
aF1.0
aF1.0
aF3.0
aF2.0
aF2.0
aF6.0
aF1.0
aF2.0
aF1.0
aF3.0
aF3.0
aF1.0
aF3.0
aF3.0
aF1.0
aF3.0
aF1.0
aF2.0
aF3.0
aF1.0
aF3.0
aF2.0
aF1.0
aF1.0
aF3.0
aF3.0
aF2.0
aF2.0
aF5.0
aF3.0
aF3.0
aF2.0
aF4.0
aF2.0
aF2.0
aF4.0
aF2.0
aF4.0
aF4.0
aF3.0
aF4.0
aF2.0
aF1.0
aF2.0
aF2.0
aF5.0
aF4.0
aF6.0
aF2.0
aF2.0
aF3.0
aF3.0
aF1.0
aF1.0
aF3.0
aF3.0
aF2.0
aF1.0
aF2.0
aF4.0
aF3.0
aF2.0
aF3.0
aF2.0
aF3.0
aF4.0
aF2.0
aF5.0
aF2.0
aF3.0
aF2.0
aF4.0
aF1.0
aF0.0
aF3.0
aF2.0
aF2.0
aF2.0
aF2.0
aF2.0
aF3.0
aF2.0
aF2.0
aF2.0
aF1.0
aF1.0
aF3.0
aF2.0
aF3.0
aF2.0
aF2.0
aF2.0
aF2.0
aF2.0
aF2.0
aF4.0
aF2.0
aF2.0
aF2.0
aF3.0
aF2.0
aF1.0
aF3.0
aF2.0
aF3.0
aF1.0
aF3.0
aF2.0
aF3.0
aF3.0
aF2.0
aF2.0
aF2.0
aF3.0
aF2.0
aF2.0
aF2.0
aF4.0
aF1.0
aF4.0
aF2.0
aF3.0
aF1.0
aF2.0
aF2.0
aF3.0
aF1.0
aF6.0
aF4.0
aF3.0
aF2.0
aF4.0
aF2.0
aF1.0
aF1.0
aF3.0
aF2.0
aF2.0
aF2.0
aF3.0
aF1.0
aF2.0
aF3.0
aF3.0
aF2.0
aF4.0
aF4.0
aF2.0
aF3.0
aF2.0
aF2.0
aF2.0
aF1.0
aF3.0
aF3.0
aF5.0
aF2.0
aF3.0
aF2.0
aF1.0
aF3.0
aF2.0
aF4.0
aF2.0
aF3.0
aF2.0
aF2.0
aF2.0
aF4.0
aF2.0
aF2.0
aF3.0
aF3.0
aF2.0
aF1.0
aF1.0
aF2.0
aF3.0
aF3.0
aF2.0
aF2.0
aF2.0
aF2.0
aF1.0
aF3.0
aF2.0
aF1.0
aF2.0
aF3.0
aF4.0
aF4.0
aF2.0
aF5.0
aF3.0
aF1.0
aF3.0
aF2.0
aF2.0
aF2.0
aF2.0
aF1.0
aF2.0
aF2.0
aF4.0
aF3.0
aF3.0
aF3.0
aF2.0
aF1.0
aF1.0
aF4.0
aF2.0
aF2.0
aF4.0
aF5.0
aF4.0
aF2.0
aF1.0
aF3.0
aF3.0
aF2.0
aF2.0
aF1.0
aF2.0
aF2.0
aF5.0
aF3.0
aF4.0
aF3.0
aF3.0
aF4.0
aF2.0
aF8.0
aF1.0
aF1.0
aF2.0
aF3.0
aF5.0
aF2.0
aF2.0
aF2.0
aF2.0
aF3.0
aF1.0
aF3.0
aF6.0
aF3.0
aF2.0
aF3.0
aF1.0
aF3.0
aF2.0
aF4.0
aF2.0
aF3.0
aF2.0
aF3.0
aF2.0
aF4.0
aF3.0
aF2.0
aF3.0
aF2.0
aF2.0
aF4.0
aF3.0
aF3.0
aF2.0
aF4.0
aF1.0
aF3.0
aF4.0
aF1.0
aF4.0
aF4.0
aF2.0
aF2.0
aF1.0
aF3.0
aF1.0
aF3.0
aF1.0
aF2.0
aF3.0
aF3.0
aF2.0
aF3.0
aF3.0
aF2.0
aF1.0
aF4.0
aF1.0
aF2.0
aF2.0
aF1.0
aF4.0
aF7.0
aF3.0
aF4.0
aF1.0
aF2.0
aF2.0
aF2.0
aF3.0
aF2.0
aF2.0
aF3.0
aF1.0
aF4.0
aF1.0
aF4.0
aF3.0
aF2.0
aF1.0
aF3.0
aF8.0
aF4.0
aF6.0
aF4.0
aF3.0
aF1.0
aF1.0
aF5.0
aF4.0
aF1.0
aF1.0
aF2.0
aF3.0
aF3.0
aF2.0
aF6.0
aF2.0
aF3.0
aF2.0
aF3.0
aF3.0
aF1.0
aF2.0
aF1.0
aF4.0
aF3.0
aF3.0
aF2.0
aF1.0
aF2.0
aF4.0
aF7.0
aF2.0
aF2.0
aF4.0
aF3.0
aF2.0
aF2.0
aF5.0
aF2.0
aF2.0
aF3.0
aF2.0
aF4.0
aF3.0
aF3.0
aF4.0
aF3.0
aF3.0
aF5.0
aF1.0
aF2.0
aF2.0
aF2.0
aF3.0
aF5.0
aF2.0
aF4.0
aF2.0
aF2.0
aF2.0
aF2.0
aF2.0
aF3.0
aF2.0
aF2.0
aF3.0
aF2.0
aF3.0
aF2.0
aF1.0
aF2.0
aF1.0
aF2.0
aF1.0
aF2.0
aF2.0
aF2.0
aF3.0
aF1.0
aF6.0
aF1.0
aF3.0
aF2.0
aF5.0
aF4.0
aF3.0
aF2.0
aF4.0
aF4.0
aF1.0
aF2.0
aF5.0
aF3.0
aF3.0
aF2.0
aF4.0
aF4.0
aF2.0
aF1.0
aF5.0
aF3.0
aF4.0
aF2.0
aF2.0
aF3.0
aF3.0
aF3.0
aF2.0
aF2.0
aF4.0
aF3.0
aF1.0
aF1.0
aF2.0
aF2.0
aF2.0
aF3.0
aF3.0
aF3.0
aF1.0
aF4.0
aF4.0
aF3.0
aF2.0
aF4.0
aF1.0
aF4.0
aF4.0
aF2.0
aF3.0
aF1.0
aF2.0
aF2.0
aF4.0
aF4.0
aF3.0
aF1.0
aF4.0
aF4.0
aF3.0
aF3.0
aF3.0
aF3.0
aF2.0
aF4.0
aF2.0
aF2.0
aF3.0
aF2.0
aF2.0
aF6.0
aF4.0
aF4.0
aF4.0
aF4.0
aF2.0
aF3.0
aF3.0
aF2.0
aF2.0
aF4.0
aF4.0
aF2.0
aF2.0
aF2.0
aF2.0
aF3.0
aF1.0
aF1.0
aF1.0
aF1.0
aF3.0
aF2.0
aF2.0
aF2.0
aF3.0
aF2.0
aF0.0
aF3.0
aF1.0
aF1.0
aF4.0
aF2.0
aF3.0
aF8.0
aF3.0
aF2.0
aF4.0
aF2.0
aF4.0
aF1.0
aF3.0
aF4.0
aF2.0
aF1.0
aF6.0
aF2.0
aF2.0
aF3.0
aF1.0
aF2.0
aF2.0
aF5.0
aF1.0
aF3.0
aF2.0
aF3.0
aF3.0
aF3.0
aF1.0
aF5.0
aF1.0
aF3.0
aF2.0
aF1.0
aF1.0
aF1.0
aF3.0
aF3.0
aF2.0
aF1.0
aF3.0
aF5.0
aF3.0
aF3.0
aF3.0
aF2.0
aF1.0
aF2.0
aF3.0
aF1.0
aF1.0
aF3.0
aF2.0
aF2.0
aF3.0
aF2.0
aF4.0
aF4.0
aF5.0
aF3.0
aF2.0
aF3.0
aF3.0
aF2.0
aF2.0
aF2.0
aF5.0
aF1.0
aF3.0
aF5.0
aF2.0
aF3.0
aF3.0
aF2.0
aF5.0
aF3.0
aF2.0
aF3.0
aF3.0
aF3.0
aF3.0
aF4.0
aF7.0
aF3.0
aF3.0
aF2.0
aF2.0
aF4.0
aF2.0
aF3.0
aF4.0
aF2.0
aF1.0
aF3.0
aF1.0
aF3.0
aF2.0
aF3.0
aF2.0
aF5.0
aF4.0
aF3.0
aF3.0
aF4.0
aF1.0
aF3.0
aF3.0
aF2.0
aF2.0
aF1.0
aF2.0
aF1.0
aF5.0
aF3.0
aF1.0
aF3.0
aF5.0
aF3.0
aF2.0
aF4.0
aF3.0
aF2.0
aF1.0
aF3.0
aF3.0
aF5.0
aF4.0
aF2.0
aF5.0
aF4.0
aF3.0
aF4.0
aF5.0
aF3.0
aF1.0
aF2.0
aF2.0
aF2.0
aF2.0
aF2.0
aF5.0
aF3.0
aF3.0
aF1.0
aF2.0
aF2.0
aF2.0
aF2.0
aF3.0
aF2.0
aF4.0
aF2.0
aF2.0
aF2.0
aF1.0
aF1.0
aF3.0
aF4.0
aF2.0
aF3.0
aF3.0
aF2.0
aF1.0
aF3.0
aF3.0
aF5.0
aF3.0
aF4.0
aF2.0
aF2.0
aF3.0
aF5.0
aF6.0
aF4.0
aF5.0
aF2.0
aF4.0
aF3.0
aF4.0
aF2.0
aF3.0
aF2.0
aF2.0
aF2.0
aF4.0
aF4.0
aF2.0
aF3.0
aF2.0
aF4.0
aF4.0
aF2.0
aF3.0
aF3.0
aF2.0
aF4.0
aF3.0
aF5.0
aF5.0
aF3.0
aF2.0
aF3.0
aF3.0
aF5.0
aF2.0
aF4.0
aF2.0
aF4.0
aF1.0
aF2.0
aF2.0
aF5.0
aF2.0
aF3.0
aF3.0
aF3.0
aF3.0
aF4.0
aF2.0
aF2.0
aF2.0
aF2.0
aF4.0
aF3.0
aF4.0
aF1.0
aF2.0
aF2.0
aF2.0
aF2.0
aF2.0
aF3.0
aF4.0
aF2.0
aF3.0
aF3.0
aF2.0
aF4.0
aF2.0
aF4.0
aF2.0
aF2.0
aF1.0
aF2.0
aF4.0
aF5.0
aF4.0
aF4.0
aF6.0
aF2.0
aF4.0
aF4.0
aF4.0
aF5.0
aF3.0
aF2.0
aF4.0
aF2.0
aF3.0
aF2.0
aF2.0
aF2.0
aF4.0
aF2.0
aF3.0
aF3.0
aF2.0
aF3.0
aF4.0
aF2.0
aF2.0
aF2.0
aF2.0
aF2.0
aF2.0
aF3.0
aF1.0
aF3.0
aF2.0
aF3.0
aF4.0
aF1.0
aF1.0
aF2.0
aF4.0
aF4.0
aF2.0
aF2.0
aF3.0
aF2.0
aF4.0
aF2.0
aF6.0
aF3.0
aF2.0
aF3.0
aF2.0
aF2.0
aF7.0
aF4.0
aF4.0
aF1.0
aF4.0
aF4.0
aF3.0
aF4.0
aF4.0
aF3.0
aF4.0
aF3.0
aF4.0
aF1.0
aF4.0
aF2.0
aF2.0
aF3.0
aF2.0
aF4.0
aF2.0
aF0.0
aF0.0
aF5.0
aF3.0
aF2.0
aF1.0
aF4.0
aF3.0
aF4.0
aF3.0
aF3.0
aF4.0
aF3.0
aF2.0
aF4.0
aF1.0
aF4.0
aF2.0
aF4.0
aF4.0
aF3.0
aF2.0
aF2.0
aF4.0
aF3.0
aF5.0
aF4.0
aF2.0
aF4.0
aF2.0
aF4.0
aF3.0
aF2.0
aF4.0
aF2.0
aF3.0
aF3.0
aF6.0
aF2.0
aF5.0
aF4.0
aF2.0
aF2.0
aF2.0
aF4.0
aF2.0
aF4.0
aF2.0
aF2.0
aF4.0
aF3.0
aF4.0
aF3.0
aF6.0
aF2.0
aF2.0
aF4.0
aF2.0
aF3.0
aF2.0
aF3.0
aF2.0
aF2.0
aF2.0
aF3.0
aF2.0
aF1.0
aF2.0
aF2.0
aF6.0
aF4.0
aF2.0
aF2.0
aF4.0
aF4.0
aF1.0
aF2.0
aF3.0
aF2.0
aF2.0
aF4.0
aF2.0
aF2.0
aF3.0
aF4.0
aF3.0
aF4.0
aF2.0
aF4.0
aF2.0
aF4.0
aF5.0
aF2.0
aF4.0
aF2.0
aF4.0
aF4.0
aF5.0
aF4.0
aF2.0
aF4.0
aF2.0
aF4.0
aF5.0
aF4.0
aF4.0
aF2.0
aF3.0
aF2.0
aF3.0
aF4.0
aF4.0
aF3.0
aF4.0
aF3.0
aF2.0
aF3.0
aF5.0
aF3.0
aF3.0
aF3.0
aF2.0
aF4.0
aF2.0
aF2.0
aF2.0
aF4.0
aF2.0
aF2.0
aF4.0
aF5.0
aF4.0
aF3.0
aF5.0
aF3.0
aF2.0
aF2.0
aF4.0
aF5.0
aF5.0
aF3.0
aF3.0
aF6.0
aF3.0
aF2.0
aF2.0
aF2.0
aF3.0
aF5.0
aF3.0
aF3.0
aF3.0
aF4.0
aF4.0
aF3.0
aF3.0
aF2.0
aF3.0
aF4.0
aF4.0
aF2.0
aF6.0
aF5.0
aF2.0
aF3.0
aF2.0
aF4.0
aF2.0
aF2.0
aF2.0
aF2.0
aF3.0
aF4.0
aF3.0
aF5.0
aF3.0
aF4.0
aF3.0
aF4.0
aF4.0
aF2.0
aF4.0
aF3.0
aF2.0
aF3.0
aF4.0
aF5.0
aF2.0
aF3.0
aF3.0
aF3.0
aF2.0
aF4.0
aF5.0
aF4.0
aF2.0
aF4.0
aF2.0
aF2.0
aF1.0
aF4.0
aF4.0
aF1.0
aF4.0
aF4.0
aF4.0
aF4.0
aF3.0
aF2.0
aF1.0
aF2.0
aF2.0
aF4.0
aF4.0
aF4.0
aF2.0
aF3.0
aF3.0
aF2.0
aF4.0
aF2.0
aF6.0
aF1.0
aF2.0
aF4.0
aF2.0
aF2.0
aF3.0
aF2.0
aF2.0
aF2.0
aF4.0
aF2.0
aF2.0
aF2.0
aF3.0
aF4.0
aF3.0
aF5.0
aF5.0
aF3.0
aF4.0
aF4.0
aF2.0
aF5.0
aF4.0
aF4.0
aF6.0
aF5.0
aF2.0
aF2.0
aF3.0
aF3.0
aF3.0
aF3.0
aF4.0
aF3.0
aF3.0
aF4.0
aF4.0
aF4.0
aF2.0
aF4.0
aF4.0
aF4.0
aF2.0
aF4.0
aF2.0
aF6.0
aF2.0
aF2.0
aF4.0
aF4.0
aF6.0
aF2.0
aF3.0
aF4.0
aF2.0
aF4.0
aF3.0
aF4.0
aF2.0
aF4.0
aF4.0
aF3.0
aF4.0
aF1.0
aF1.0
aF2.0
aF4.0
aF5.0
aF3.0
aF5.0
aF4.0
aF4.0
aF4.0
aF2.0
aF4.0
aF2.0
aF1.0
aF5.0
aF3.0
aF2.0
aF2.0
aF2.0
aF3.0
aF5.0
aF4.0
aF4.0
aF3.0
aF4.0
aF4.0
aF5.0
aF2.0
aF3.0
aF2.0
aF3.0
aF3.0
aF2.0
aF4.0
aF2.0
aF4.0
aF4.0
aF2.0
aF2.0
aF4.0
aF4.0
aF4.0
aF4.0
aF2.0
aF4.0
aF2.0
aF4.0
aF5.0
aF4.0
aF4.0
aF2.0
aF2.0
aF4.0
aF3.0
aF4.0
aF3.0
aF5.0
aF3.0
aF3.0
aF2.0
aF4.0
aF4.0
aF3.0
aF3.0
aF4.0
aF5.0
aF5.0
aF2.0
aF2.0
aF1.0
aF2.0
aF3.0
aF3.0
aF4.0
aF4.0
aF7.0
aF3.0
aF3.0
aF5.0
aF4.0
aF2.0
aF2.0
aF2.0
aF3.0
aF5.0
aF4.0
aF1.0
aF3.0
aF5.0
aF4.0
aF2.0
aF4.0
aF3.0
aF4.0
aF4.0
aF2.0
aF2.0
aF4.0
aF5.0
aF6.0
aF4.0
aF3.0
aF4.0
aF4.0
aF2.0
aF4.0
aF5.0
aF2.0
aF2.0
aF6.0
aF4.0
aF4.0
aF5.0
aF3.0
aF4.0
aF3.0
aF5.0
aF2.0
aF1.0
aF4.0
aF4.0
aF7.0
aF4.0
aF4.0
aF6.0
aF1.0
aF4.0
aF1.0
aF4.0
aF4.0
aF4.0
aF7.0
aF5.0
aF2.0
aF2.0
aF4.0
aF4.0
aF6.0
aF4.0
aF7.0
aF2.0
aF3.0
aF4.0
aF4.0
aF3.0
aF4.0
aF4.0
aF4.0
aF4.0
aF6.0
aF2.0
aF3.0
aF4.0
aF3.0
aF2.0
aF4.0
aF5.0
aF4.0
aF2.0
aF4.0
aF3.0
aF4.0
aF4.0
aF4.0
aF3.0
aF4.0
aF4.0
aF2.0
aF4.0
aF4.0
aF3.0
aF1.0
aF2.0
aF3.0
aF4.0
aF4.0
aF4.0
aF3.0
aF3.0
aF4.0
aF3.0
aF4.0
aF4.0
aF5.0
aF2.0
aF3.0
aF2.0
aF4.0
aF2.0
aF3.0
aF2.0
aF3.0
aF2.0
aF3.0
aF7.0
aF3.0
aF4.0
aF3.0
aF3.0
aF1.0
aF1.0
aF3.0
aF2.0
aF4.0
aF2.0
aF3.0
aF4.0
aF3.0
aF5.0
aF5.0
aF3.0
aF6.0
aF4.0
aF2.0
aF2.0
aF3.0
aF0.0
aF3.0
aF2.0
aF3.0
aF3.0
aF3.0
aF3.0
aF8.0
aF3.0
aF1.0
aF4.0
aF2.0
aF3.0
aF4.0
aF2.0
aF5.0
aF2.0
aF3.0
aF6.0
aF5.0
aF4.0
aF2.0
aF5.0
aF6.0
aF5.0
aF4.0
aF4.0
aF2.0
aF4.0
aF2.0
aF4.0
aF2.0
aF2.0
aF3.0
aF4.0
aF3.0
aF3.0
aF4.0
aF3.0
aF7.0
aF4.0
aF3.0
aF4.0
aF2.0
aF2.0
aF2.0
aF3.0
aF1.0
aF2.0
aF2.0
aF5.0
aF2.0
aF4.0
aF4.0
aF2.0
aF2.0
aF4.0
aF4.0
aF3.0
aF3.0
aF3.0
aF7.0
aF4.0
aF3.0
aF2.0
aF2.0
aF3.0
aF4.0
aF4.0
aF5.0
aF4.0
aF5.0
aF2.0
aF4.0
aF5.0
aF4.0
aF4.0
aF5.0
aF3.0
aF2.0
aF1.0
aF3.0
aF7.0
aF2.0
aF4.0
aF4.0
aF5.0
aF5.0
aF3.0
aF2.0
aF5.0
aF6.0
aF3.0
aF5.0
aF2.0
aF2.0
aF4.0
aF4.0
aF2.0
aF2.0
aF3.0
aF4.0
aF6.0
aF4.0
aF5.0
aF4.0
aF4.0
aF4.0
aF4.0
aF3.0
aF2.0
aF3.0
aF2.0
aF5.0
aF4.0
aF3.0
aF5.0
aF4.0
aF2.0
aF3.0
aF2.0
aF4.0
aF4.0
aF3.0
aF5.0
aF3.0
aF5.0
aF3.0
aF2.0
aF2.0
aF3.0
aF4.0
aF2.0
aF2.0
aF5.0
aF2.0
aF3.0
aF4.0
aF5.0
aF4.0
aF2.0
aF5.0
aF4.0
aF5.0
aF4.0
aF5.0
aF4.0
aF2.0
aF5.0
aF4.0
aF4.0
aF3.0
aF3.0
aF4.0
aF3.0
aF5.0
aF4.0
aF2.0
aF4.0
aF3.0
aF5.0
aF4.0
aF4.0
aF2.0
aF4.0
aF5.0
aF2.0
aF4.0
aF2.0
aF4.0
aF3.0
aF3.0
aF3.0
aF5.0
aF5.0
aF2.0
aF2.0
aF4.0
aF2.0
aF3.0
aF6.0
aF4.0
aF5.0
aF4.0
aF4.0
aF4.0
aF3.0
aF4.0
aF3.0
aF3.0
aF4.0
aF4.0
aF5.0
aF4.0
aF2.0
aF4.0
aF6.0
aF4.0
aF4.0
aF4.0
aF2.0
aF4.0
aF4.0
aF5.0
aF4.0
aF2.0
aF5.0
aF4.0
aF5.0
aF3.0
aF4.0
aF5.0
aF3.0
aF4.0
aF5.0
aF3.0
aF4.0
aF3.0
aF4.0
aF1.0
aF2.0
aF5.0
aF2.0
aF2.0
aF4.0
aF4.0
aF6.0
aF2.0
aF4.0
aF2.0
aF5.0
aF2.0
aF3.0
aF5.0
aF3.0
aF5.0
aF3.0
aF3.0
aF3.0
aF1.0
aF2.0
aF2.0
aF6.0
aF4.0
aF3.0
aF4.0
aF3.0
aF6.0
aF4.0
aF3.0
aF4.0
aF7.0
aF2.0
aF6.0
aF2.0
aF2.0
aF4.0
aF4.0
aF3.0
aF5.0
aF4.0
aF2.0
aF4.0
aF4.0
aF4.0
aF4.0
aF4.0
aF2.0
aF3.0
aF4.0
aF3.0
aF2.0
aF4.0
aF4.0
aF2.0
aF4.0
aF7.0
aF6.0
aF5.0
aF5.0
aF4.0
aF4.0
aF2.0
aF3.0
aF4.0
aF6.0
aF3.0
aF5.0
aF3.0
aF4.0
aF2.0
aF4.0
aF5.0
aF2.0
aF5.0
aF2.0
aF3.0
aF4.0
aF4.0
aF4.0
aF5.0
aF6.0
aF2.0
aF2.0
aF5.0
aF4.0
aF7.0
aF7.0
aF2.0
aF2.0
aF4.0
aF4.0
aF4.0
aF4.0
aF6.0
aF5.0
aF3.0
aF4.0
aF6.0
aF4.0
aF4.0
aF4.0
aF4.0
aF1.0
aF4.0
aF4.0
aF3.0
aF5.0
aF4.0
aF4.0
aF4.0
aF4.0
aF3.0
aF5.0
aF4.0
aF3.0
aF3.0
aF4.0
aF4.0
aF3.0
aF4.0
aF4.0
aF3.0
aF4.0
aF4.0
aF4.0
aF1.0
aF4.0
aF5.0
aF4.0
aF3.0
aF2.0
aF3.0
aF3.0
aF4.0
aF4.0
aF4.0
aF2.0
aF2.0
aF4.0
aF5.0
aF4.0
aF2.0
aF3.0
aF5.0
aF4.0
aF5.0
aF4.0
aF7.0
aF2.0
aF3.0
aF6.0
aF4.0
aF4.0
aF3.0
aF4.0
aF4.0
aF3.0
aF2.0
aF3.0
aF4.0
aF6.0
aF3.0
aF3.0
aF3.0
aF5.0
aF4.0
aF4.0
aF5.0
aF4.0
aF5.0
aF6.0
aF4.0
aF5.0
aF3.0
aF4.0
aF2.0
aF4.0
aF3.0
aF3.0
aF4.0
aF3.0
aF4.0
aF2.0
aF4.0
aF3.0
aF2.0
aF4.0
aF4.0
aF4.0
aF3.0
aF2.0
aF3.0
aF2.0
aF4.0
aF4.0
aF2.0
aF3.0
aF3.0
aF2.0
aF3.0
aF4.0
aF5.0
aF4.0
aF5.0
aF2.0
aF6.0
aF4.0
aF4.0
aF4.0
aF1.0
aF4.0
aF4.0
aF3.0
aF4.0
aF1.0
aF4.0
aF5.0
aF4.0
aF4.0
aF4.0
aF1.0
aF4.0
aF4.0
aF4.0
aF4.0
aF3.0
aF4.0
aF3.0
aF4.0
aF4.0
aF4.0
aF4.0
aF2.0
aF4.0
aF4.0
aF5.0
aF3.0
aF4.0
aF2.0
aF4.0
aF3.0
aF2.0
aF5.0
aF4.0
aF2.0
aF3.0
aF2.0
aF4.0
aF3.0
aF2.0
aF2.0
aF4.0
aF2.0
aF4.0
aF5.0
aF6.0
aF3.0
aF2.0
aF4.0
aF5.0
aF4.0
aF6.0
aF3.0
aF2.0
aF5.0
aF2.0
aF6.0
aF2.0
aF3.0
aF5.0
aF4.0
aF5.0
aF4.0
aF5.0
aF2.0
aF6.0
aF4.0
aF1.0
aF4.0
aF5.0
aF4.0
aF5.0
aF4.0
aF2.0
aF4.0
aF4.0
aF5.0
aF5.0
aF4.0
aF4.0
aF3.0
aF2.0
aF2.0
aF7.0
aF3.0
aF2.0
aF3.0
aF3.0
aF3.0
aF2.0
aF3.0
aF5.0
aF4.0
aF11.0
aF2.0
aF2.0
aF5.0
aF5.0
aF2.0
aF4.0
aF4.0
aF2.0
aF3.0
aF4.0
aF4.0
aF5.0
aF2.0
aF3.0
aF9.0
aF5.0
aF7.0
aF2.0
aF3.0
aF2.0
aF4.0
aF5.0
aF3.0
aF7.0
aF5.0
aF4.0
aF3.0
aF3.0
aF4.0
aF2.0
aF2.0
aF3.0
aF5.0
aF5.0
aF4.0
aF6.0
aF3.0
aF3.0
aF3.0
aF5.0
aF1.0
aF2.0
aF4.0
aF4.0
aF3.0
aF4.0
aF3.0
aF3.0
aF4.0
aF6.0
aF4.0
aF3.0
aF4.0
aF2.0
aF5.0
aF3.0
aF3.0
aF4.0
aF4.0
aF4.0
aF2.0
aF4.0
aF3.0
aF4.0
aF4.0
aF2.0
aF3.0
aF5.0
aF2.0
aF3.0
aF5.0
aF4.0
aF4.0
aF4.0
aF2.0
aF2.0
aF2.0
aF7.0
aF2.0
aF2.0
aF2.0
aF5.0
aF3.0
aF2.0
aF5.0
aF2.0
aF4.0
aF2.0
aF5.0
aF4.0
aF2.0
aF5.0
aF4.0
aF2.0
aF4.0
aF4.0
aF4.0
aF4.0
aF2.0
aF4.0
aF2.0
aF2.0
aF1.0
aF2.0
aF1.0
aF2.0
aF4.0
aF3.0
aF3.0
aF6.0
aF4.0
aF4.0
aF4.0
aF3.0
aF2.0
aF4.0
aF1.0
aF4.0
aF3.0
aF2.0
aF1.0
aF4.0
aF4.0
aF4.0
aF5.0
aF2.0
aF6.0
aF4.0
aF3.0
aF3.0
aF1.0
aF4.0
aF6.0
aF4.0
aF3.0
aF6.0
aF5.0
aF4.0
aF3.0
aF4.0
aF4.0
aF6.0
aF3.0
aF2.0
aF5.0
aF4.0
aF3.0
aF4.0
aF5.0
aF5.0
aF2.0
aF4.0
aF5.0
aF6.0
aF4.0
aF5.0
aF4.0
aF4.0
aF5.0
aF4.0
aF3.0
aF3.0
aF6.0
aF6.0
aF6.0
aF4.0
aF3.0
aF5.0
aF4.0
aF6.0
aF2.0
aF4.0
aF3.0
aF5.0
aF3.0
aF2.0
aF5.0
aF3.0
aF5.0
aF4.0
aF4.0
aF4.0
aF5.0
aF2.0
aF4.0
aF3.0
aF5.0
aF2.0
aF1.0
aF3.0
aF5.0
aF4.0
aF4.0
aF5.0
aF1.0
aF4.0
aF3.0
aF2.0
aF5.0
aF2.0
aF4.0
aF2.0
aF3.0
aF6.0
aF4.0
aF4.0
aF4.0
aF3.0
aF3.0
aF2.0
aF1.0
aF4.0
aF6.0
aF5.0
aF2.0
aF2.0
aF2.0
aF4.0
aF6.0
aF7.0
aF3.0
aF3.0
aF2.0
aF3.0
aF6.0
aF3.0
aF5.0
aF4.0
aF4.0
aF2.0
aF5.0
aF4.0
aF2.0
aF4.0
aF3.0
aF3.0
aF2.0
aF4.0
aF5.0
aF4.0
aF6.0
aF6.0
aF5.0
aF7.0
aF4.0
aF1.0
aF7.0
aF4.0
aF2.0
aF2.0
aF2.0
aF4.0
aF5.0
aF2.0
aF4.0
aF3.0
aF6.0
aF3.0
aF3.0
aF3.0
aF4.0
aF3.0
aF3.0
aF1.0
aF4.0
aF2.0
aF5.0
aF1.0
aF4.0
aF4.0
aF2.0
aF4.0
aF6.0
aF2.0
aF2.0
aF2.0
aF2.0
aF5.0
aF3.0
aF4.0
aF3.0
aF4.0
aF4.0
aF6.0
aF5.0
aF2.0
aF3.0
aF3.0
aF2.0
aF2.0
aF4.0
aF1.0
aF4.0
aF2.0
aF4.0
aF3.0
aF4.0
aF3.0
aF2.0
aF5.0
aF4.0
aF2.0
aF4.0
aF4.0
aF2.0
aF4.0
aF6.0
aF4.0
aF4.0
aF5.0
aF1.0
aF5.0
aF3.0
aF3.0
aF5.0
aF4.0
aF4.0
aF4.0
aF3.0
aF5.0
aF4.0
aF4.0
aF2.0
aF6.0
aF4.0
aF3.0
aF2.0
aF3.0
aF3.0
aF3.0
aF3.0
aF4.0
aF1.0
aF2.0
aF2.0
aF6.0
aF10.0
aF7.0
aF5.0
aF5.0
aF3.0
aF2.0
aF3.0
aF4.0
aF4.0
aF2.0
aF4.0
aF2.0
aF2.0
aF3.0
aF7.0
aF4.0
aF2.0
aF2.0
aF4.0
aF3.0
aF5.0
aF3.0
aF2.0
aF5.0
aF1.0
aF3.0
aF2.0
aF2.0
aF5.0
aF4.0
aF3.0
aF2.0
aF3.0
aF6.0
aF5.0
aF1.0
aF2.0
aF6.0
aF2.0
aF4.0
aF3.0
aF2.0
aF4.0
aF4.0
aF2.0
aF5.0
aF2.0
aF3.0
aF7.0
aF5.0
asS'total_steps'
p5
I1631893
sS'total_episodes'
p6
I4602
sb.